; Function Attrs: mustprogress nofree nounwind uwtable
define noundef nonnull align 8 dereferenceable(24) ptr @_ZNK4LIEF8assembly11Instruction3rawEv(ptr noundef nonnull readnone align 8 captures(none) dereferenceable(16) %0) local_unnamed_addr #7 align 2 {
  %2 = load atomic i8, ptr @_ZGVZNK4LIEF8assembly11Instruction3rawEvE5empty acquire, align 8
  %3 = icmp eq i8 %2, 0
  br i1 %3, label %4, label %8, !prof !30

4:                                                ; preds = %1
  %5 = tail call i32 @__cxa_guard_acquire(ptr nonnull @_ZGVZNK4LIEF8assembly11Instruction3rawEvE5empty) #26
  %.not = icmp eq i32 %5, 0
  br i1 %.not, label %8, label %6

6:                                                ; preds = %4
  tail call void @llvm.memset.p0.i64(ptr noundef nonnull align 8 dereferenceable(24) @_ZZNK4LIEF8assembly11Instruction3rawEvE5empty, i8 0, i64 24, i1 false)
  %7 = tail call i32 @__cxa_atexit(ptr nonnull @_ZNSt6vectorIhSaIhEED2Ev, ptr nonnull @_ZZNK4LIEF8assembly11Instruction3rawEvE5empty, ptr nonnull @__dso_handle) #26
  tail call void @__cxa_guard_release(ptr nonnull @_ZGVZNK4LIEF8assembly11Instruction3rawEvE5empty) #26
  br label %8

8:                                                ; preds = %6, %4, %1
  ret ptr @_ZZNK4LIEF8assembly11Instruction3rawEvE5empty
}